target datalayout = "e-m:e-p270:32:32-p271:32:32-p272:64:64-i64:64-i128:128-f80:128-n8:16:32:64-S128"
target triple = "x86_64-pc-linux-gnu"

%"class.net::PacingSender" = type <{ ptr, %"class.net::QuicBandwidth", i32, [4 x i8], %"class.net::QuicTime", %"class.net::QuicTime", i8, [7 x i8] }>
%"class.net::QuicBandwidth" = type { i64 }
%"class.net::QuicTime" = type { i64 }

; Function Attrs: inlinehint mustprogress nounwind uwtable
define linkonce_odr void @_ZN3net8QuicTimeC2El(ptr noundef nonnull align 8 dereferenceable(8) %0, i64 noundef %1) unnamed_addr #7 comdat align 2 {
  %3 = alloca ptr, align 8
  %4 = alloca i64, align 8
  store ptr %0, ptr %3, align 8, !tbaa !38
  store i64 %1, ptr %4, align 8, !tbaa !3
  %5 = load ptr, ptr %3, align 8
  %6 = getelementptr inbounds nuw %"class.net::QuicTime", ptr %5, i32 0, i32 0
  %7 = load i64, ptr %4, align 8, !tbaa !3
  store i64 %7, ptr %6, align 8, !tbaa !34
  ret void
}

; Function Attrs: inlinehint mustprogress uwtable
define linkonce_odr i64 @_ZN3net8QuicTime4ZeroEv() #1 comdat align 2 {
  %1 = alloca %"class.net::QuicTime", align 8
  call void @_ZN3net8QuicTimeC2El(ptr noundef nonnull align 8 dereferenceable(8) %1, i64 noundef 0)
  %2 = getelementptr inbounds nuw %"class.net::QuicTime", ptr %1, i32 0, i32 0
  %3 = load i64, ptr %2, align 8
  ret i64 %3
}

; Function Attrs: mustprogress uwtable
define void @_ZN3net12PacingSenderC2Ev(ptr noundef nonnull align 8 dereferenceable(41) %0) unnamed_addr #3 align 2 {
  %2 = alloca ptr, align 8
  store ptr %0, ptr %2, align 8, !tbaa !7
  %3 = load ptr, ptr %2, align 8
  %4 = getelementptr inbounds nuw %"class.net::PacingSender", ptr %3, i32 0, i32 0
  store ptr null, ptr %4, align 8, !tbaa !10
  %5 = getelementptr inbounds nuw %"class.net::PacingSender", ptr %3, i32 0, i32 1
  %6 = call i64 @_ZN3net13QuicBandwidth4ZeroEv()
  %7 = getelementptr inbounds nuw %"class.net::QuicBandwidth", ptr %5, i32 0, i32 0
  store i64 %6, ptr %7, align 8
  %8 = getelementptr inbounds nuw %"class.net::PacingSender", ptr %3, i32 0, i32 2
  store i32 10, ptr %8, align 8, !tbaa !17
  %9 = getelementptr inbounds nuw %"class.net::PacingSender", ptr %3, i32 0, i32 4
  %10 = call i64 @_ZN3net8QuicTime4ZeroEv()
  %11 = getelementptr inbounds nuw %"class.net::QuicTime", ptr %9, i32 0, i32 0
  store i64 %10, ptr %11, align 8
  %12 = getelementptr inbounds nuw %"class.net::PacingSender", ptr %3, i32 0, i32 5
  %13 = call i64 @_ZN3net8QuicTime4ZeroEv()
  %14 = getelementptr inbounds nuw %"class.net::QuicTime", ptr %12, i32 0, i32 0
  store i64 %13, ptr %14, align 8
  %15 = getelementptr inbounds nuw %"class.net::PacingSender", ptr %3, i32 0, i32 6
  store i8 0, ptr %15, align 8, !tbaa !18
  ret void
}