; Function Attrs: mustprogress uwtable
define void @_ZN3net12PacingSenderC2Ev(ptr noundef nonnull writeonly align 8 captures(none) dereferenceable(41) initializes((0, 20), (24, 41)) %0) unnamed_addr #0 align 2 {
  store ptr null, ptr %0, align 8, !tbaa !3
  %2 = getelementptr inbounds nuw i8, ptr %0, i64 8
  %3 = tail call i64 @_ZN3net13QuicBandwidth4ZeroEv()
  store i64 %3, ptr %2, align 8
  %4 = getelementptr inbounds nuw i8, ptr %0, i64 16
  store i32 10, ptr %4, align 8, !tbaa !14
  %5 = getelementptr inbounds nuw i8, ptr %0, i64 24
  tail call void @llvm.memset.p0.i64(ptr noundef nonnull align 8 dereferenceable(17) %5, i8 0, i64 17, i1 false)
  ret void
}